
printf.elf:     file format elf32-littlearm

Disassembly of section .text:

00000000 <_start>:
   0:	e3a00453 	mov	r0, #1392508928	; 0x53000000
   4:	e3a01000 	mov	r1, #0	; 0x0
   8:	e5801000 	str	r1, [r0]
   c:	e3a00313 	mov	r0, #1275068416	; 0x4c000000
  10:	e3e01000 	mvn	r1, #0	; 0x0
  14:	e5801000 	str	r1, [r0]
  18:	e59f0044 	ldr	r0, [pc, #68]	; 64 <.text+0x64>
  1c:	e3a01005 	mov	r1, #5	; 0x5
  20:	e5801000 	str	r1, [r0]
  24:	ee110f10 	mrc	15, 0, r0, cr1, cr0, {0}
  28:	e3800103 	orr	r0, r0, #-1073741824	; 0xc0000000
  2c:	ee010f10 	mcr	15, 0, r0, cr1, cr0, {0}
  30:	e59f0030 	ldr	r0, [pc, #48]	; 68 <.text+0x68>
  34:	e59f1030 	ldr	r1, [pc, #48]	; 6c <.text+0x6c>
  38:	e5801000 	str	r1, [r0]
  3c:	e3a01000 	mov	r1, #0	; 0x0
  40:	e5910000 	ldr	r0, [r1]
  44:	e5811000 	str	r1, [r1]
  48:	e5912000 	ldr	r2, [r1]
  4c:	e1510002 	cmp	r1, r2
  50:	e59fd018 	ldr	sp, [pc, #24]	; 70 <.text+0x70>
  54:	03a0da01 	moveq	sp, #4096	; 0x1000
  58:	05810000 	streq	r0, [r1]
  5c:	eb0002d5 	bl	bb8 <main>

00000060 <halt>:
  60:	eafffffe 	b	60 <halt>
  64:	4c000014 	stcmi	0, cr0, [r0], {20}
  68:	4c000004 	stcmi	0, cr0, [r0], {4}
  6c:	0005c011 	andeq	ip, r5, r1, lsl r0
  70:	40001000 	andmi	r1, r0, r0

00000074 <uart_config>:
  74:	e1a0c00d 	mov	ip, sp
  78:	e92dd800 	stmdb	sp!, {fp, ip, lr, pc}
  7c:	e24cb004 	sub	fp, ip, #4	; 0x4
  80:	e3a02456 	mov	r2, #1442840576	; 0x56000000
  84:	e2822070 	add	r2, r2, #112	; 0x70
  88:	e3a03456 	mov	r3, #1442840576	; 0x56000000
  8c:	e2833070 	add	r3, r3, #112	; 0x70
  90:	e5933000 	ldr	r3, [r3]
  94:	e3c330f0 	bic	r3, r3, #240	; 0xf0
  98:	e5823000 	str	r3, [r2]
  9c:	e3a02456 	mov	r2, #1442840576	; 0x56000000
  a0:	e2822070 	add	r2, r2, #112	; 0x70
  a4:	e3a03456 	mov	r3, #1442840576	; 0x56000000
  a8:	e2833070 	add	r3, r3, #112	; 0x70
  ac:	e5933000 	ldr	r3, [r3]
  b0:	e38330a0 	orr	r3, r3, #160	; 0xa0
  b4:	e5823000 	str	r3, [r2]
  b8:	e3a02456 	mov	r2, #1442840576	; 0x56000000
  bc:	e2822078 	add	r2, r2, #120	; 0x78
  c0:	e3a03456 	mov	r3, #1442840576	; 0x56000000
  c4:	e2833078 	add	r3, r3, #120	; 0x78
  c8:	e5933000 	ldr	r3, [r3]
  cc:	e3c3300c 	bic	r3, r3, #12	; 0xc
  d0:	e5823000 	str	r3, [r2]
  d4:	e3a03205 	mov	r3, #1342177280	; 0x50000000
  d8:	e2833028 	add	r3, r3, #40	; 0x28
  dc:	e3a0201a 	mov	r2, #26	; 0x1a
  e0:	e5832000 	str	r2, [r3]
  e4:	e3a02205 	mov	r2, #1342177280	; 0x50000000
  e8:	e3a03003 	mov	r3, #3	; 0x3
  ec:	e5823000 	str	r3, [r2]
  f0:	e3a02245 	mov	r2, #1342177284	; 0x50000004
  f4:	e3a03005 	mov	r3, #5	; 0x5
  f8:	e5823000 	str	r3, [r2]
  fc:	e89da800 	ldmia	sp, {fp, sp, pc}

00000100 <put_char>:
 100:	e1a0c00d 	mov	ip, sp
 104:	e92dd800 	stmdb	sp!, {fp, ip, lr, pc}
 108:	e24cb004 	sub	fp, ip, #4	; 0x4
 10c:	e24dd004 	sub	sp, sp, #4	; 0x4
 110:	e50b0010 	str	r0, [fp, #-16]
 114:	e3a03205 	mov	r3, #1342177280	; 0x50000000
 118:	e2833010 	add	r3, r3, #16	; 0x10
 11c:	e5933000 	ldr	r3, [r3]
 120:	e2033004 	and	r3, r3, #4	; 0x4
 124:	e3530000 	cmp	r3, #0	; 0x0
 128:	1a000000 	bne	130 <put_char+0x30>
 12c:	eafffff8 	b	114 <put_char+0x14>
 130:	e3a03205 	mov	r3, #1342177280	; 0x50000000
 134:	e2833020 	add	r3, r3, #32	; 0x20
 138:	e51b2010 	ldr	r2, [fp, #-16]
 13c:	e5c32000 	strb	r2, [r3]
 140:	e3a03000 	mov	r3, #0	; 0x0
 144:	e1a00003 	mov	r0, r3
 148:	e89da808 	ldmia	sp, {r3, fp, sp, pc}

0000014c <get_char>:
 14c:	e1a0c00d 	mov	ip, sp
 150:	e92dd800 	stmdb	sp!, {fp, ip, lr, pc}
 154:	e24cb004 	sub	fp, ip, #4	; 0x4
 158:	e3a03205 	mov	r3, #1342177280	; 0x50000000
 15c:	e2833010 	add	r3, r3, #16	; 0x10
 160:	e5933000 	ldr	r3, [r3]
 164:	e2033001 	and	r3, r3, #1	; 0x1
 168:	e3530000 	cmp	r3, #0	; 0x0
 16c:	1a000000 	bne	174 <get_char+0x28>
 170:	eafffff8 	b	158 <get_char+0xc>
 174:	e3a03205 	mov	r3, #1342177280	; 0x50000000
 178:	e2833024 	add	r3, r3, #36	; 0x24
 17c:	e5d33000 	ldrb	r3, [r3]
 180:	e20330ff 	and	r3, r3, #255	; 0xff
 184:	e1a00003 	mov	r0, r3
 188:	e89da800 	ldmia	sp, {fp, sp, pc}

0000018c <puts>:
 18c:	e1a0c00d 	mov	ip, sp
 190:	e92dd800 	stmdb	sp!, {fp, ip, lr, pc}
 194:	e24cb004 	sub	fp, ip, #4	; 0x4
 198:	e24dd004 	sub	sp, sp, #4	; 0x4
 19c:	e50b0010 	str	r0, [fp, #-16]
 1a0:	e51b3010 	ldr	r3, [fp, #-16]
 1a4:	e5d33000 	ldrb	r3, [r3]
 1a8:	e3530000 	cmp	r3, #0	; 0x0
 1ac:	0a000007 	beq	1d0 <puts+0x44>
 1b0:	e51b3010 	ldr	r3, [fp, #-16]
 1b4:	e5d33000 	ldrb	r3, [r3]
 1b8:	e1a00003 	mov	r0, r3
 1bc:	ebffffcf 	bl	100 <put_char>
 1c0:	e51b3010 	ldr	r3, [fp, #-16]
 1c4:	e2833001 	add	r3, r3, #1	; 0x1
 1c8:	e50b3010 	str	r3, [fp, #-16]
 1cc:	eafffff3 	b	1a0 <puts+0x14>
 1d0:	e3a03000 	mov	r3, #0	; 0x0
 1d4:	e1a00003 	mov	r0, r3
 1d8:	e89da808 	ldmia	sp, {r3, fp, sp, pc}

000001dc <wdg_config>:
 1dc:	e1a0c00d 	mov	ip, sp
 1e0:	e92dd800 	stmdb	sp!, {fp, ip, lr, pc}
 1e4:	e24cb004 	sub	fp, ip, #4	; 0x4
 1e8:	e3a02453 	mov	r2, #1392508928	; 0x53000000
 1ec:	e3a03000 	mov	r3, #0	; 0x0
 1f0:	e5823000 	str	r3, [r2]
 1f4:	e89da800 	ldmia	sp, {fp, sp, pc}

000001f8 <led_config>:
 1f8:	e1a0c00d 	mov	ip, sp
 1fc:	e92dd800 	stmdb	sp!, {fp, ip, lr, pc}
 200:	e24cb004 	sub	fp, ip, #4	; 0x4
 204:	e3a02456 	mov	r2, #1442840576	; 0x56000000
 208:	e2822050 	add	r2, r2, #80	; 0x50
 20c:	e3a03456 	mov	r3, #1442840576	; 0x56000000
 210:	e2833050 	add	r3, r3, #80	; 0x50
 214:	e5933000 	ldr	r3, [r3]
 218:	e3c33c3f 	bic	r3, r3, #16128	; 0x3f00
 21c:	e5823000 	str	r3, [r2]
 220:	e3a02456 	mov	r2, #1442840576	; 0x56000000
 224:	e2822050 	add	r2, r2, #80	; 0x50
 228:	e3a03456 	mov	r3, #1442840576	; 0x56000000
 22c:	e2833050 	add	r3, r3, #80	; 0x50
 230:	e5933000 	ldr	r3, [r3]
 234:	e3833c15 	orr	r3, r3, #5376	; 0x1500
 238:	e5823000 	str	r3, [r2]
 23c:	e3a02456 	mov	r2, #1442840576	; 0x56000000
 240:	e2822058 	add	r2, r2, #88	; 0x58
 244:	e3a03456 	mov	r3, #1442840576	; 0x56000000
 248:	e2833058 	add	r3, r3, #88	; 0x58
 24c:	e5933000 	ldr	r3, [r3]
 250:	e3833070 	orr	r3, r3, #112	; 0x70
 254:	e5823000 	str	r3, [r2]
 258:	e3a02456 	mov	r2, #1442840576	; 0x56000000
 25c:	e2822054 	add	r2, r2, #84	; 0x54
 260:	e3a03456 	mov	r3, #1442840576	; 0x56000000
 264:	e2833054 	add	r3, r3, #84	; 0x54
 268:	e5933000 	ldr	r3, [r3]
 26c:	e3833070 	orr	r3, r3, #112	; 0x70
 270:	e5823000 	str	r3, [r2]
 274:	e89da800 	ldmia	sp, {fp, sp, pc}

00000278 <set_led>:
 278:	e1a0c00d 	mov	ip, sp
 27c:	e92dd800 	stmdb	sp!, {fp, ip, lr, pc}
 280:	e24cb004 	sub	fp, ip, #4	; 0x4
 284:	e24dd00c 	sub	sp, sp, #12	; 0xc
 288:	e50b0010 	str	r0, [fp, #-16]
 28c:	e50b1014 	str	r1, [fp, #-20]
 290:	e51b3010 	ldr	r3, [fp, #-16]
 294:	e3530004 	cmp	r3, #4	; 0x4
 298:	0a000006 	beq	2b8 <set_led+0x40>
 29c:	e51b3010 	ldr	r3, [fp, #-16]
 2a0:	e3530005 	cmp	r3, #5	; 0x5
 2a4:	0a000003 	beq	2b8 <set_led+0x40>
 2a8:	e51b3010 	ldr	r3, [fp, #-16]
 2ac:	e3530006 	cmp	r3, #6	; 0x6
 2b0:	0a000000 	beq	2b8 <set_led+0x40>
 2b4:	ea00003a 	b	3a4 <set_led+0x12c>
 2b8:	e51b3014 	ldr	r3, [fp, #-20]
 2bc:	e3530000 	cmp	r3, #0	; 0x0
 2c0:	0a000006 	beq	2e0 <set_led+0x68>
 2c4:	e51b3014 	ldr	r3, [fp, #-20]
 2c8:	e3530001 	cmp	r3, #1	; 0x1
 2cc:	0a000003 	beq	2e0 <set_led+0x68>
 2d0:	e51b3014 	ldr	r3, [fp, #-20]
 2d4:	e3530002 	cmp	r3, #2	; 0x2
 2d8:	0a000000 	beq	2e0 <set_led+0x68>
 2dc:	ea000030 	b	3a4 <set_led+0x12c>
 2e0:	e51b3014 	ldr	r3, [fp, #-20]
 2e4:	e50b3018 	str	r3, [fp, #-24]
 2e8:	e51b3018 	ldr	r3, [fp, #-24]
 2ec:	e3530001 	cmp	r3, #1	; 0x1
 2f0:	0a000016 	beq	350 <set_led+0xd8>
 2f4:	e51b3018 	ldr	r3, [fp, #-24]
 2f8:	e3530001 	cmp	r3, #1	; 0x1
 2fc:	ca000003 	bgt	310 <set_led+0x98>
 300:	e51b3018 	ldr	r3, [fp, #-24]
 304:	e3530000 	cmp	r3, #0	; 0x0
 308:	0a000004 	beq	320 <set_led+0xa8>
 30c:	ea000024 	b	3a4 <set_led+0x12c>
 310:	e51b3018 	ldr	r3, [fp, #-24]
 314:	e3530002 	cmp	r3, #2	; 0x2
 318:	0a000017 	beq	37c <set_led+0x104>
 31c:	ea000020 	b	3a4 <set_led+0x12c>
 320:	e3a00456 	mov	r0, #1442840576	; 0x56000000
 324:	e2800054 	add	r0, r0, #84	; 0x54
 328:	e3a02456 	mov	r2, #1442840576	; 0x56000000
 32c:	e2822054 	add	r2, r2, #84	; 0x54
 330:	e3a01001 	mov	r1, #1	; 0x1
 334:	e51b3010 	ldr	r3, [fp, #-16]
 338:	e1a03311 	mov	r3, r1, lsl r3
 33c:	e1e01003 	mvn	r1, r3
 340:	e5923000 	ldr	r3, [r2]
 344:	e0033001 	and	r3, r3, r1
 348:	e5803000 	str	r3, [r0]
 34c:	ea000014 	b	3a4 <set_led+0x12c>
 350:	e3a00456 	mov	r0, #1442840576	; 0x56000000
 354:	e2800054 	add	r0, r0, #84	; 0x54
 358:	e3a02456 	mov	r2, #1442840576	; 0x56000000
 35c:	e2822054 	add	r2, r2, #84	; 0x54
 360:	e3a01001 	mov	r1, #1	; 0x1
 364:	e51b3010 	ldr	r3, [fp, #-16]
 368:	e1a01311 	mov	r1, r1, lsl r3
 36c:	e5923000 	ldr	r3, [r2]
 370:	e1833001 	orr	r3, r3, r1
 374:	e5803000 	str	r3, [r0]
 378:	ea000009 	b	3a4 <set_led+0x12c>
 37c:	e3a00456 	mov	r0, #1442840576	; 0x56000000
 380:	e2800054 	add	r0, r0, #84	; 0x54
 384:	e3a02456 	mov	r2, #1442840576	; 0x56000000
 388:	e2822054 	add	r2, r2, #84	; 0x54
 38c:	e3a01001 	mov	r1, #1	; 0x1
 390:	e51b3010 	ldr	r3, [fp, #-16]
 394:	e1a01311 	mov	r1, r1, lsl r3
 398:	e5923000 	ldr	r3, [r2]
 39c:	e0233001 	eor	r3, r3, r1
 3a0:	e5803000 	str	r3, [r0]
 3a4:	e24bd00c 	sub	sp, fp, #12	; 0xc
 3a8:	e89da800 	ldmia	sp, {fp, sp, pc}
 3ac:	00000000 	andeq	r0, r0, r0

000003b0 <__udivsi3>:
 3b0:	e2512001 	subs	r2, r1, #1	; 0x1
 3b4:	01a0f00e 	moveq	pc, lr
 3b8:	3a0000e5 	bcc	754 <Ldiv0>
 3bc:	e1500001 	cmp	r0, r1
 3c0:	9a000022 	bls	450 <__udivsi3+0xa0>
 3c4:	e1110002 	tst	r1, r2
 3c8:	0a000023 	beq	45c <__udivsi3+0xac>
 3cc:	e311020e 	tst	r1, #-536870912	; 0xe0000000
 3d0:	01a01181 	moveq	r1, r1, lsl #3
 3d4:	03a03008 	moveq	r3, #8	; 0x8
 3d8:	13a03001 	movne	r3, #1	; 0x1
 3dc:	e3510201 	cmp	r1, #268435456	; 0x10000000
 3e0:	31510000 	cmpcc	r1, r0
 3e4:	31a01201 	movcc	r1, r1, lsl #4
 3e8:	31a03203 	movcc	r3, r3, lsl #4
 3ec:	3afffffa 	bcc	3dc <__udivsi3+0x2c>
 3f0:	e3510102 	cmp	r1, #-2147483648	; 0x80000000
 3f4:	31510000 	cmpcc	r1, r0
 3f8:	31a01081 	movcc	r1, r1, lsl #1
 3fc:	31a03083 	movcc	r3, r3, lsl #1
 400:	3afffffa 	bcc	3f0 <__udivsi3+0x40>
 404:	e3a02000 	mov	r2, #0	; 0x0
 408:	e1500001 	cmp	r0, r1
 40c:	20400001 	subcs	r0, r0, r1
 410:	21822003 	orrcs	r2, r2, r3
 414:	e15000a1 	cmp	r0, r1, lsr #1
 418:	204000a1 	subcs	r0, r0, r1, lsr #1
 41c:	218220a3 	orrcs	r2, r2, r3, lsr #1
 420:	e1500121 	cmp	r0, r1, lsr #2
 424:	20400121 	subcs	r0, r0, r1, lsr #2
 428:	21822123 	orrcs	r2, r2, r3, lsr #2
 42c:	e15001a1 	cmp	r0, r1, lsr #3
 430:	204001a1 	subcs	r0, r0, r1, lsr #3
 434:	218221a3 	orrcs	r2, r2, r3, lsr #3
 438:	e3500000 	cmp	r0, #0	; 0x0
 43c:	11b03223 	movnes	r3, r3, lsr #4
 440:	11a01221 	movne	r1, r1, lsr #4
 444:	1affffef 	bne	408 <__udivsi3+0x58>
 448:	e1a00002 	mov	r0, r2
 44c:	e1a0f00e 	mov	pc, lr
 450:	03a00001 	moveq	r0, #1	; 0x1
 454:	13a00000 	movne	r0, #0	; 0x0
 458:	e1a0f00e 	mov	pc, lr
 45c:	e3510801 	cmp	r1, #65536	; 0x10000
 460:	21a01821 	movcs	r1, r1, lsr #16
 464:	23a02010 	movcs	r2, #16	; 0x10
 468:	33a02000 	movcc	r2, #0	; 0x0
 46c:	e3510c01 	cmp	r1, #256	; 0x100
 470:	21a01421 	movcs	r1, r1, lsr #8
 474:	22822008 	addcs	r2, r2, #8	; 0x8
 478:	e3510010 	cmp	r1, #16	; 0x10
 47c:	21a01221 	movcs	r1, r1, lsr #4
 480:	22822004 	addcs	r2, r2, #4	; 0x4
 484:	e3510004 	cmp	r1, #4	; 0x4
 488:	82822003 	addhi	r2, r2, #3	; 0x3
 48c:	908220a1 	addls	r2, r2, r1, lsr #1
 490:	e1a00230 	mov	r0, r0, lsr r2
 494:	e1a0f00e 	mov	pc, lr
 498:	90909090 	umulllss	r9, r0, r0, r0
 49c:	90909090 	umulllss	r9, r0, r0, r0

000004a0 <__umodsi3>:
 4a0:	e2512001 	subs	r2, r1, #1	; 0x1
 4a4:	3a0000aa 	bcc	754 <Ldiv0>
 4a8:	11500001 	cmpne	r0, r1
 4ac:	03a00000 	moveq	r0, #0	; 0x0
 4b0:	81110002 	tsthi	r1, r2
 4b4:	00000002 	andeq	r0, r0, r2
 4b8:	91a0f00e 	movls	pc, lr
 4bc:	e3a02000 	mov	r2, #0	; 0x0
 4c0:	e3510201 	cmp	r1, #268435456	; 0x10000000
 4c4:	31510000 	cmpcc	r1, r0
 4c8:	31a01201 	movcc	r1, r1, lsl #4
 4cc:	32822004 	addcc	r2, r2, #4	; 0x4
 4d0:	3afffffa 	bcc	4c0 <__umodsi3+0x20>
 4d4:	e3510102 	cmp	r1, #-2147483648	; 0x80000000
 4d8:	31510000 	cmpcc	r1, r0
 4dc:	31a01081 	movcc	r1, r1, lsl #1
 4e0:	32822001 	addcc	r2, r2, #1	; 0x1
 4e4:	3afffffa 	bcc	4d4 <__umodsi3+0x34>
 4e8:	e2522003 	subs	r2, r2, #3	; 0x3
 4ec:	ba00000e 	blt	52c <__umodsi3+0x8c>
 4f0:	e1500001 	cmp	r0, r1
 4f4:	20400001 	subcs	r0, r0, r1
 4f8:	e15000a1 	cmp	r0, r1, lsr #1
 4fc:	204000a1 	subcs	r0, r0, r1, lsr #1
 500:	e1500121 	cmp	r0, r1, lsr #2
 504:	20400121 	subcs	r0, r0, r1, lsr #2
 508:	e15001a1 	cmp	r0, r1, lsr #3
 50c:	204001a1 	subcs	r0, r0, r1, lsr #3
 510:	e3500001 	cmp	r0, #1	; 0x1
 514:	e1a01221 	mov	r1, r1, lsr #4
 518:	a2522004 	subges	r2, r2, #4	; 0x4
 51c:	aafffff3 	bge	4f0 <__umodsi3+0x50>
 520:	e3120003 	tst	r2, #3	; 0x3
 524:	13300000 	teqne	r0, #0	; 0x0
 528:	0a00000a 	beq	558 <__umodsi3+0xb8>
 52c:	e3720002 	cmn	r2, #2	; 0x2
 530:	ba000006 	blt	550 <__umodsi3+0xb0>
 534:	0a000002 	beq	544 <__umodsi3+0xa4>
 538:	e1500001 	cmp	r0, r1
 53c:	20400001 	subcs	r0, r0, r1
 540:	e1a010a1 	mov	r1, r1, lsr #1
 544:	e1500001 	cmp	r0, r1
 548:	20400001 	subcs	r0, r0, r1
 54c:	e1a010a1 	mov	r1, r1, lsr #1
 550:	e1500001 	cmp	r0, r1
 554:	20400001 	subcs	r0, r0, r1
 558:	e1a0f00e 	mov	pc, lr
 55c:	90909090 	umulllss	r9, r0, r0, r0

00000560 <__divsi3>:
 560:	e3510000 	cmp	r1, #0	; 0x0
 564:	e020c001 	eor	ip, r0, r1
 568:	0a000079 	beq	754 <Ldiv0>
 56c:	42611000 	rsbmi	r1, r1, #0	; 0x0
 570:	e2512001 	subs	r2, r1, #1	; 0x1
 574:	0a000027 	beq	618 <__divsi3+0xb8>
 578:	e1b03000 	movs	r3, r0
 57c:	42603000 	rsbmi	r3, r0, #0	; 0x0
 580:	e1530001 	cmp	r3, r1
 584:	9a000026 	bls	624 <__divsi3+0xc4>
 588:	e1110002 	tst	r1, r2
 58c:	0a000028 	beq	634 <__divsi3+0xd4>
 590:	e311020e 	tst	r1, #-536870912	; 0xe0000000
 594:	01a01181 	moveq	r1, r1, lsl #3
 598:	03a02008 	moveq	r2, #8	; 0x8
 59c:	13a02001 	movne	r2, #1	; 0x1
 5a0:	e3510201 	cmp	r1, #268435456	; 0x10000000
 5a4:	31510003 	cmpcc	r1, r3
 5a8:	31a01201 	movcc	r1, r1, lsl #4
 5ac:	31a02202 	movcc	r2, r2, lsl #4
 5b0:	3afffffa 	bcc	5a0 <__divsi3+0x40>
 5b4:	e3510102 	cmp	r1, #-2147483648	; 0x80000000
 5b8:	31510003 	cmpcc	r1, r3
 5bc:	31a01081 	movcc	r1, r1, lsl #1
 5c0:	31a02082 	movcc	r2, r2, lsl #1
 5c4:	3afffffa 	bcc	5b4 <__divsi3+0x54>
 5c8:	e3a00000 	mov	r0, #0	; 0x0
 5cc:	e1530001 	cmp	r3, r1
 5d0:	20433001 	subcs	r3, r3, r1
 5d4:	21800002 	orrcs	r0, r0, r2
 5d8:	e15300a1 	cmp	r3, r1, lsr #1
 5dc:	204330a1 	subcs	r3, r3, r1, lsr #1
 5e0:	218000a2 	orrcs	r0, r0, r2, lsr #1
 5e4:	e1530121 	cmp	r3, r1, lsr #2
 5e8:	20433121 	subcs	r3, r3, r1, lsr #2
 5ec:	21800122 	orrcs	r0, r0, r2, lsr #2
 5f0:	e15301a1 	cmp	r3, r1, lsr #3
 5f4:	204331a1 	subcs	r3, r3, r1, lsr #3
 5f8:	218001a2 	orrcs	r0, r0, r2, lsr #3
 5fc:	e3530000 	cmp	r3, #0	; 0x0
 600:	11b02222 	movnes	r2, r2, lsr #4
 604:	11a01221 	movne	r1, r1, lsr #4
 608:	1affffef 	bne	5cc <__divsi3+0x6c>
 60c:	e35c0000 	cmp	ip, #0	; 0x0
 610:	42600000 	rsbmi	r0, r0, #0	; 0x0
 614:	e1a0f00e 	mov	pc, lr
 618:	e13c0000 	teq	ip, r0
 61c:	42600000 	rsbmi	r0, r0, #0	; 0x0
 620:	e1a0f00e 	mov	pc, lr
 624:	33a00000 	movcc	r0, #0	; 0x0
 628:	01a00fcc 	moveq	r0, ip, asr #31
 62c:	03800001 	orreq	r0, r0, #1	; 0x1
 630:	e1a0f00e 	mov	pc, lr
 634:	e3510801 	cmp	r1, #65536	; 0x10000
 638:	21a01821 	movcs	r1, r1, lsr #16
 63c:	23a02010 	movcs	r2, #16	; 0x10
 640:	33a02000 	movcc	r2, #0	; 0x0
 644:	e3510c01 	cmp	r1, #256	; 0x100
 648:	21a01421 	movcs	r1, r1, lsr #8
 64c:	22822008 	addcs	r2, r2, #8	; 0x8
 650:	e3510010 	cmp	r1, #16	; 0x10
 654:	21a01221 	movcs	r1, r1, lsr #4
 658:	22822004 	addcs	r2, r2, #4	; 0x4
 65c:	e3510004 	cmp	r1, #4	; 0x4
 660:	82822003 	addhi	r2, r2, #3	; 0x3
 664:	908220a1 	addls	r2, r2, r1, lsr #1
 668:	e35c0000 	cmp	ip, #0	; 0x0
 66c:	e1a00233 	mov	r0, r3, lsr r2
 670:	42600000 	rsbmi	r0, r0, #0	; 0x0
 674:	e1a0f00e 	mov	pc, lr
 678:	90909090 	umulllss	r9, r0, r0, r0
 67c:	90909090 	umulllss	r9, r0, r0, r0

00000680 <__modsi3>:
 680:	e3510000 	cmp	r1, #0	; 0x0
 684:	0a000032 	beq	754 <Ldiv0>
 688:	42611000 	rsbmi	r1, r1, #0	; 0x0
 68c:	e1b0c000 	movs	ip, r0
 690:	42600000 	rsbmi	r0, r0, #0	; 0x0
 694:	e2512001 	subs	r2, r1, #1	; 0x1
 698:	11500001 	cmpne	r0, r1
 69c:	03a00000 	moveq	r0, #0	; 0x0
 6a0:	81110002 	tsthi	r1, r2
 6a4:	00000002 	andeq	r0, r0, r2
 6a8:	9a000026 	bls	748 <__modsi3+0xc8>
 6ac:	e3a02000 	mov	r2, #0	; 0x0
 6b0:	e3510201 	cmp	r1, #268435456	; 0x10000000
 6b4:	31510000 	cmpcc	r1, r0
 6b8:	31a01201 	movcc	r1, r1, lsl #4
 6bc:	32822004 	addcc	r2, r2, #4	; 0x4
 6c0:	3afffffa 	bcc	6b0 <__modsi3+0x30>
 6c4:	e3510102 	cmp	r1, #-2147483648	; 0x80000000
 6c8:	31510000 	cmpcc	r1, r0
 6cc:	31a01081 	movcc	r1, r1, lsl #1
 6d0:	32822001 	addcc	r2, r2, #1	; 0x1
 6d4:	3afffffa 	bcc	6c4 <__modsi3+0x44>
 6d8:	e2522003 	subs	r2, r2, #3	; 0x3
 6dc:	ba00000e 	blt	71c <__modsi3+0x9c>
 6e0:	e1500001 	cmp	r0, r1
 6e4:	20400001 	subcs	r0, r0, r1
 6e8:	e15000a1 	cmp	r0, r1, lsr #1
 6ec:	204000a1 	subcs	r0, r0, r1, lsr #1
 6f0:	e1500121 	cmp	r0, r1, lsr #2
 6f4:	20400121 	subcs	r0, r0, r1, lsr #2
 6f8:	e15001a1 	cmp	r0, r1, lsr #3
 6fc:	204001a1 	subcs	r0, r0, r1, lsr #3
 700:	e3500001 	cmp	r0, #1	; 0x1
 704:	e1a01221 	mov	r1, r1, lsr #4
 708:	a2522004 	subges	r2, r2, #4	; 0x4
 70c:	aafffff3 	bge	6e0 <__modsi3+0x60>
 710:	e3120003 	tst	r2, #3	; 0x3
 714:	13300000 	teqne	r0, #0	; 0x0
 718:	0a00000a 	beq	748 <__modsi3+0xc8>
 71c:	e3720002 	cmn	r2, #2	; 0x2
 720:	ba000006 	blt	740 <__modsi3+0xc0>
 724:	0a000002 	beq	734 <__modsi3+0xb4>
 728:	e1500001 	cmp	r0, r1
 72c:	20400001 	subcs	r0, r0, r1
 730:	e1a010a1 	mov	r1, r1, lsr #1
 734:	e1500001 	cmp	r0, r1
 738:	20400001 	subcs	r0, r0, r1
 73c:	e1a010a1 	mov	r1, r1, lsr #1
 740:	e1500001 	cmp	r0, r1
 744:	20400001 	subcs	r0, r0, r1
 748:	e35c0000 	cmp	ip, #0	; 0x0
 74c:	42600000 	rsbmi	r0, r0, #0	; 0x0
 750:	e1a0f00e 	mov	pc, lr

00000754 <Ldiv0>:
 754:	e52de004 	str	lr, [sp, #-4]!
 758:	e3a00000 	mov	r0, #0	; 0x0
 75c:	e49df004 	ldr	pc, [sp], #4

00000760 <outc>:
 760:	e1a0c00d 	mov	ip, sp
 764:	e92dd800 	stmdb	sp!, {fp, ip, lr, pc}
 768:	e24cb004 	sub	fp, ip, #4	; 0x4
 76c:	e24dd004 	sub	sp, sp, #4	; 0x4
 770:	e50b0010 	str	r0, [fp, #-16]
 774:	e51b0010 	ldr	r0, [fp, #-16]
 778:	ebfffe60 	bl	100 <put_char>
 77c:	e3a03000 	mov	r3, #0	; 0x0
 780:	e1a00003 	mov	r0, r3
 784:	e89da808 	ldmia	sp, {r3, fp, sp, pc}

00000788 <outs>:
 788:	e1a0c00d 	mov	ip, sp
 78c:	e92dd800 	stmdb	sp!, {fp, ip, lr, pc}
 790:	e24cb004 	sub	fp, ip, #4	; 0x4
 794:	e24dd004 	sub	sp, sp, #4	; 0x4
 798:	e50b0010 	str	r0, [fp, #-16]
 79c:	e51b3010 	ldr	r3, [fp, #-16]
 7a0:	e5d33000 	ldrb	r3, [r3]
 7a4:	e3530000 	cmp	r3, #0	; 0x0
 7a8:	0a000008 	beq	7d0 <outs+0x48>
 7ac:	e24b1010 	sub	r1, fp, #16	; 0x10
 7b0:	e5913000 	ldr	r3, [r1]
 7b4:	e1a02003 	mov	r2, r3
 7b8:	e5d22000 	ldrb	r2, [r2]
 7bc:	e2833001 	add	r3, r3, #1	; 0x1
 7c0:	e5813000 	str	r3, [r1]
 7c4:	e1a00002 	mov	r0, r2
 7c8:	ebfffe4c 	bl	100 <put_char>
 7cc:	eafffff2 	b	79c <outs+0x14>
 7d0:	e1a00003 	mov	r0, r3
 7d4:	e89da808 	ldmia	sp, {r3, fp, sp, pc}

000007d8 <out_num>:
 7d8:	e1a0c00d 	mov	ip, sp
 7dc:	e92dd830 	stmdb	sp!, {r4, r5, fp, ip, lr, pc}
 7e0:	e24cb004 	sub	fp, ip, #4	; 0x4
 7e4:	e24dd058 	sub	sp, sp, #88	; 0x58
 7e8:	e50b0018 	str	r0, [fp, #-24]
 7ec:	e50b101c 	str	r1, [fp, #-28]
 7f0:	e50b3024 	str	r3, [fp, #-36]
 7f4:	e1a03002 	mov	r3, r2
 7f8:	e54b301d 	strb	r3, [fp, #-29]
 7fc:	e24b3064 	sub	r3, fp, #100	; 0x64
 800:	e2833040 	add	r3, r3, #64	; 0x40
 804:	e50b3068 	str	r3, [fp, #-104]
 808:	e51b3068 	ldr	r3, [fp, #-104]
 80c:	e2433001 	sub	r3, r3, #1	; 0x1
 810:	e1a02003 	mov	r2, r3
 814:	e50b2068 	str	r2, [fp, #-104]
 818:	e3a03000 	mov	r3, #0	; 0x0
 81c:	e5c23000 	strb	r3, [r2]
 820:	e51b3018 	ldr	r3, [fp, #-24]
 824:	e3530000 	cmp	r3, #0	; 0x0
 828:	aa000003 	bge	83c <out_num+0x64>
 82c:	e51b3018 	ldr	r3, [fp, #-24]
 830:	e2633000 	rsb	r3, r3, #0	; 0x0
 834:	e50b306c 	str	r3, [fp, #-108]
 838:	ea000001 	b	844 <out_num+0x6c>
 83c:	e51b3018 	ldr	r3, [fp, #-24]
 840:	e50b306c 	str	r3, [fp, #-108]
 844:	e51b3068 	ldr	r3, [fp, #-104]
 848:	e2433001 	sub	r3, r3, #1	; 0x1
 84c:	e1a04003 	mov	r4, r3
 850:	e50b4068 	str	r4, [fp, #-104]
 854:	e59f50bc 	ldr	r5, [pc, #188]	; 918 <.text+0x918>
 858:	e51b306c 	ldr	r3, [fp, #-108]
 85c:	e1a00003 	mov	r0, r3
 860:	e51b101c 	ldr	r1, [fp, #-28]
 864:	ebffff0d 	bl	4a0 <__umodsi3>
 868:	e1a03000 	mov	r3, r0
 86c:	e7d53003 	ldrb	r3, [r5, r3]
 870:	e5c43000 	strb	r3, [r4]
 874:	e51b006c 	ldr	r0, [fp, #-108]
 878:	e51b101c 	ldr	r1, [fp, #-28]
 87c:	ebfffecb 	bl	3b0 <__udivsi3>
 880:	e1a03000 	mov	r3, r0
 884:	e50b306c 	str	r3, [fp, #-108]
 888:	e51b3024 	ldr	r3, [fp, #-36]
 88c:	e2433001 	sub	r3, r3, #1	; 0x1
 890:	e50b3024 	str	r3, [fp, #-36]
 894:	e51b306c 	ldr	r3, [fp, #-108]
 898:	e3530000 	cmp	r3, #0	; 0x0
 89c:	0a000000 	beq	8a4 <out_num+0xcc>
 8a0:	eaffffe7 	b	844 <out_num+0x6c>
 8a4:	e24b3024 	sub	r3, fp, #36	; 0x24
 8a8:	e5932000 	ldr	r2, [r3]
 8ac:	e1a01002 	mov	r1, r2
 8b0:	e2422001 	sub	r2, r2, #1	; 0x1
 8b4:	e5832000 	str	r2, [r3]
 8b8:	e3510000 	cmp	r1, #0	; 0x0
 8bc:	da000006 	ble	8dc <out_num+0x104>
 8c0:	e51b3068 	ldr	r3, [fp, #-104]
 8c4:	e2433001 	sub	r3, r3, #1	; 0x1
 8c8:	e1a02003 	mov	r2, r3
 8cc:	e50b2068 	str	r2, [fp, #-104]
 8d0:	e55b301d 	ldrb	r3, [fp, #-29]
 8d4:	e5c23000 	strb	r3, [r2]
 8d8:	eafffff1 	b	8a4 <out_num+0xcc>
 8dc:	e51b3018 	ldr	r3, [fp, #-24]
 8e0:	e3530000 	cmp	r3, #0	; 0x0
 8e4:	aa000005 	bge	900 <out_num+0x128>
 8e8:	e51b3068 	ldr	r3, [fp, #-104]
 8ec:	e2433001 	sub	r3, r3, #1	; 0x1
 8f0:	e1a02003 	mov	r2, r3
 8f4:	e50b2068 	str	r2, [fp, #-104]
 8f8:	e3a0302d 	mov	r3, #45	; 0x2d
 8fc:	e5c23000 	strb	r3, [r2]
 900:	e51b0068 	ldr	r0, [fp, #-104]
 904:	ebffff9f 	bl	788 <outs>
 908:	e3a03000 	mov	r3, #0	; 0x0
 90c:	e1a00003 	mov	r0, r3
 910:	e24bd014 	sub	sp, fp, #20	; 0x14
 914:	e89da830 	ldmia	sp, {r4, r5, fp, sp, pc}
 918:	00000ef0 	streqd	r0, [r0], -r0

0000091c <vprintf>:
 91c:	e1a0c00d 	mov	ip, sp
 920:	e92dd800 	stmdb	sp!, {fp, ip, lr, pc}
 924:	e24cb004 	sub	fp, ip, #4	; 0x4
 928:	e24dd010 	sub	sp, sp, #16	; 0x10
 92c:	e50b0010 	str	r0, [fp, #-16]
 930:	e50b1014 	str	r1, [fp, #-20]
 934:	e3a03020 	mov	r3, #32	; 0x20
 938:	e54b3015 	strb	r3, [fp, #-21]
 93c:	e3a03000 	mov	r3, #0	; 0x0
 940:	e50b301c 	str	r3, [fp, #-28]
 944:	e51b3010 	ldr	r3, [fp, #-16]
 948:	e5d33000 	ldrb	r3, [r3]
 94c:	e3530000 	cmp	r3, #0	; 0x0
 950:	0a000084 	beq	b68 <.text+0xb68>
 954:	e51b3010 	ldr	r3, [fp, #-16]
 958:	e5d33000 	ldrb	r3, [r3]
 95c:	e3530025 	cmp	r3, #37	; 0x25
 960:	0a000004 	beq	978 <vprintf+0x5c>
 964:	e51b3010 	ldr	r3, [fp, #-16]
 968:	e5d33000 	ldrb	r3, [r3]
 96c:	e1a00003 	mov	r0, r3
 970:	ebffff7a 	bl	760 <outc>
 974:	ea000077 	b	b58 <.text+0xb58>
 978:	e3a03020 	mov	r3, #32	; 0x20
 97c:	e54b3015 	strb	r3, [fp, #-21]
 980:	e3a03000 	mov	r3, #0	; 0x0
 984:	e50b301c 	str	r3, [fp, #-28]
 988:	e51b3010 	ldr	r3, [fp, #-16]
 98c:	e2833001 	add	r3, r3, #1	; 0x1
 990:	e50b3010 	str	r3, [fp, #-16]
 994:	e51b3010 	ldr	r3, [fp, #-16]
 998:	e5d33000 	ldrb	r3, [r3]
 99c:	e3530030 	cmp	r3, #48	; 0x30
 9a0:	1a000004 	bne	9b8 <vprintf+0x9c>
 9a4:	e3a03030 	mov	r3, #48	; 0x30
 9a8:	e54b3015 	strb	r3, [fp, #-21]
 9ac:	e51b3010 	ldr	r3, [fp, #-16]
 9b0:	e2833001 	add	r3, r3, #1	; 0x1
 9b4:	e50b3010 	str	r3, [fp, #-16]
 9b8:	e51b3010 	ldr	r3, [fp, #-16]
 9bc:	e5d33000 	ldrb	r3, [r3]
 9c0:	e353002f 	cmp	r3, #47	; 0x2f
 9c4:	9a000013 	bls	a18 <vprintf+0xfc>
 9c8:	e51b3010 	ldr	r3, [fp, #-16]
 9cc:	e5d33000 	ldrb	r3, [r3]
 9d0:	e3530039 	cmp	r3, #57	; 0x39
 9d4:	8a00000f 	bhi	a18 <vprintf+0xfc>
 9d8:	e51b201c 	ldr	r2, [fp, #-28]
 9dc:	e1a03002 	mov	r3, r2
 9e0:	e1a03103 	mov	r3, r3, lsl #2
 9e4:	e0833002 	add	r3, r3, r2
 9e8:	e1a03083 	mov	r3, r3, lsl #1
 9ec:	e50b301c 	str	r3, [fp, #-28]
 9f0:	e51b3010 	ldr	r3, [fp, #-16]
 9f4:	e5d32000 	ldrb	r2, [r3]
 9f8:	e51b301c 	ldr	r3, [fp, #-28]
 9fc:	e0823003 	add	r3, r2, r3
 a00:	e2433030 	sub	r3, r3, #48	; 0x30
 a04:	e50b301c 	str	r3, [fp, #-28]
 a08:	e51b3010 	ldr	r3, [fp, #-16]
 a0c:	e2833001 	add	r3, r3, #1	; 0x1
 a10:	e50b3010 	str	r3, [fp, #-16]
 a14:	eaffffe7 	b	9b8 <vprintf+0x9c>
 a18:	e51b3010 	ldr	r3, [fp, #-16]
 a1c:	e5d33000 	ldrb	r3, [r3]
 a20:	e2433063 	sub	r3, r3, #99	; 0x63
 a24:	e3530015 	cmp	r3, #21	; 0x15
 a28:	979ff103 	ldrls	pc, [pc, r3, lsl #2]
 a2c:	ea000045 	b	b48 <.text+0xb48>
 a30:	00000a88 	andeq	r0, r0, r8, lsl #21
 a34:	00000ab8 	streqh	r0, [r0], -r8
 a38:	00000b48 	andeq	r0, r0, r8, asr #22
 a3c:	00000b48 	andeq	r0, r0, r8, asr #22
 a40:	00000b48 	andeq	r0, r0, r8, asr #22
 a44:	00000b48 	andeq	r0, r0, r8, asr #22
 a48:	00000b48 	andeq	r0, r0, r8, asr #22
 a4c:	00000b48 	andeq	r0, r0, r8, asr #22
 a50:	00000b48 	andeq	r0, r0, r8, asr #22
 a54:	00000b48 	andeq	r0, r0, r8, asr #22
 a58:	00000b48 	andeq	r0, r0, r8, asr #22
 a5c:	00000b48 	andeq	r0, r0, r8, asr #22
 a60:	00000adc 	ldreqd	r0, [r0], -ip
 a64:	00000b48 	andeq	r0, r0, r8, asr #22
 a68:	00000b48 	andeq	r0, r0, r8, asr #22
 a6c:	00000b48 	andeq	r0, r0, r8, asr #22
 a70:	00000aa0 	andeq	r0, r0, r0, lsr #21
 a74:	00000b48 	andeq	r0, r0, r8, asr #22
 a78:	00000b00 	andeq	r0, r0, r0, lsl #22
 a7c:	00000b48 	andeq	r0, r0, r8, asr #22
 a80:	00000b48 	andeq	r0, r0, r8, asr #22
 a84:	00000b24 	andeq	r0, r0, r4, lsr #22
 a88:	e51b3014 	ldr	r3, [fp, #-20]
 a8c:	e2833004 	add	r3, r3, #4	; 0x4
 a90:	e50b3014 	str	r3, [fp, #-20]
 a94:	e5130004 	ldr	r0, [r3, #-4]
 a98:	ebffff30 	bl	760 <outc>
 a9c:	ea00002d 	b	b58 <.text+0xb58>
 aa0:	e51b3014 	ldr	r3, [fp, #-20]
 aa4:	e2833004 	add	r3, r3, #4	; 0x4
 aa8:	e50b3014 	str	r3, [fp, #-20]
 aac:	e5130004 	ldr	r0, [r3, #-4]
 ab0:	ebffff34 	bl	788 <outs>
 ab4:	ea000027 	b	b58 <.text+0xb58>
 ab8:	e51b3014 	ldr	r3, [fp, #-20]
 abc:	e2833004 	add	r3, r3, #4	; 0x4
 ac0:	e50b3014 	str	r3, [fp, #-20]
 ac4:	e55b2015 	ldrb	r2, [fp, #-21]
 ac8:	e5130004 	ldr	r0, [r3, #-4]
 acc:	e3a0100a 	mov	r1, #10	; 0xa
 ad0:	e51b301c 	ldr	r3, [fp, #-28]
 ad4:	ebffff3f 	bl	7d8 <out_num>
 ad8:	ea00001e 	b	b58 <.text+0xb58>
 adc:	e51b3014 	ldr	r3, [fp, #-20]
 ae0:	e2833004 	add	r3, r3, #4	; 0x4
 ae4:	e50b3014 	str	r3, [fp, #-20]
 ae8:	e55b2015 	ldrb	r2, [fp, #-21]
 aec:	e5130004 	ldr	r0, [r3, #-4]
 af0:	e3a01008 	mov	r1, #8	; 0x8
 af4:	e51b301c 	ldr	r3, [fp, #-28]
 af8:	ebffff36 	bl	7d8 <out_num>
 afc:	ea000015 	b	b58 <.text+0xb58>
 b00:	e51b3014 	ldr	r3, [fp, #-20]
 b04:	e2833004 	add	r3, r3, #4	; 0x4
 b08:	e50b3014 	str	r3, [fp, #-20]
 b0c:	e55b2015 	ldrb	r2, [fp, #-21]
 b10:	e5130004 	ldr	r0, [r3, #-4]
 b14:	e3a0100a 	mov	r1, #10	; 0xa
 b18:	e51b301c 	ldr	r3, [fp, #-28]
 b1c:	ebffff2d 	bl	7d8 <out_num>
 b20:	ea00000c 	b	b58 <.text+0xb58>
 b24:	e51b3014 	ldr	r3, [fp, #-20]
 b28:	e2833004 	add	r3, r3, #4	; 0x4
 b2c:	e50b3014 	str	r3, [fp, #-20]
 b30:	e55b2015 	ldrb	r2, [fp, #-21]
 b34:	e5130004 	ldr	r0, [r3, #-4]
 b38:	e3a01010 	mov	r1, #16	; 0x10
 b3c:	e51b301c 	ldr	r3, [fp, #-28]
 b40:	ebffff24 	bl	7d8 <out_num>
 b44:	ea000003 	b	b58 <.text+0xb58>
 b48:	e51b3010 	ldr	r3, [fp, #-16]
 b4c:	e5d33000 	ldrb	r3, [r3]
 b50:	e1a00003 	mov	r0, r3
 b54:	ebffff01 	bl	760 <outc>
 b58:	e51b3010 	ldr	r3, [fp, #-16]
 b5c:	e2833001 	add	r3, r3, #1	; 0x1
 b60:	e50b3010 	str	r3, [fp, #-16]
 b64:	eaffff76 	b	944 <vprintf+0x28>
 b68:	e3a03000 	mov	r3, #0	; 0x0
 b6c:	e1a00003 	mov	r0, r3
 b70:	e24bd00c 	sub	sp, fp, #12	; 0xc
 b74:	e89da800 	ldmia	sp, {fp, sp, pc}

00000b78 <printf>:
 b78:	e1a0c00d 	mov	ip, sp
 b7c:	e92d000f 	stmdb	sp!, {r0, r1, r2, r3}
 b80:	e92dd800 	stmdb	sp!, {fp, ip, lr, pc}
 b84:	e24cb014 	sub	fp, ip, #20	; 0x14
 b88:	e24dd004 	sub	sp, sp, #4	; 0x4
 b8c:	e28b3008 	add	r3, fp, #8	; 0x8
 b90:	e50b3010 	str	r3, [fp, #-16]
 b94:	e59b0004 	ldr	r0, [fp, #4]
 b98:	e51b1010 	ldr	r1, [fp, #-16]
 b9c:	ebffff5e 	bl	91c <vprintf>
 ba0:	e3a03000 	mov	r3, #0	; 0x0
 ba4:	e50b3010 	str	r3, [fp, #-16]
 ba8:	e3a03000 	mov	r3, #0	; 0x0
 bac:	e1a00003 	mov	r0, r3
 bb0:	e24bd00c 	sub	sp, fp, #12	; 0xc
 bb4:	e89da800 	ldmia	sp, {fp, sp, pc}

00000bb8 <main>:
 bb8:	e1a0c00d 	mov	ip, sp
 bbc:	e92dd800 	stmdb	sp!, {fp, ip, lr, pc}
 bc0:	e24cb004 	sub	fp, ip, #4	; 0x4
 bc4:	ebfffd84 	bl	1dc <wdg_config>
 bc8:	ebfffd29 	bl	74 <uart_config>
 bcc:	ebfffd89 	bl	1f8 <led_config>
 bd0:	e3a00004 	mov	r0, #4	; 0x4
 bd4:	e3a01000 	mov	r1, #0	; 0x0
 bd8:	ebfffda6 	bl	278 <set_led>
 bdc:	e3a00005 	mov	r0, #5	; 0x5
 be0:	e3a01000 	mov	r1, #0	; 0x0
 be4:	ebfffda3 	bl	278 <set_led>
 be8:	e3a00006 	mov	r0, #6	; 0x6
 bec:	e3a01000 	mov	r1, #0	; 0x0
 bf0:	ebfffda0 	bl	278 <set_led>
 bf4:	e59f0124 	ldr	r0, [pc, #292]	; d20 <.text+0xd20>
 bf8:	ebffffde 	bl	b78 <printf>
 bfc:	e59f0120 	ldr	r0, [pc, #288]	; d24 <.text+0xd24>
 c00:	e3a01041 	mov	r1, #65	; 0x41
 c04:	ebffffdb 	bl	b78 <printf>
 c08:	e59f0118 	ldr	r0, [pc, #280]	; d28 <.text+0xd28>
 c0c:	e59f1118 	ldr	r1, [pc, #280]	; d2c <.text+0xd2c>
 c10:	ebffffd8 	bl	b78 <printf>
 c14:	e59f0114 	ldr	r0, [pc, #276]	; d30 <.text+0xd30>
 c18:	e3a0107b 	mov	r1, #123	; 0x7b
 c1c:	ebffffd5 	bl	b78 <printf>
 c20:	e59f010c 	ldr	r0, [pc, #268]	; d34 <.text+0xd34>
 c24:	e3a01010 	mov	r1, #16	; 0x10
 c28:	ebffffd2 	bl	b78 <printf>
 c2c:	e59f0104 	ldr	r0, [pc, #260]	; d38 <.text+0xd38>
 c30:	e3a0107b 	mov	r1, #123	; 0x7b
 c34:	ebffffcf 	bl	b78 <printf>
 c38:	e59f00fc 	ldr	r0, [pc, #252]	; d3c <.text+0xd3c>
 c3c:	e3a0107b 	mov	r1, #123	; 0x7b
 c40:	ebffffcc 	bl	b78 <printf>
 c44:	e59f00f4 	ldr	r0, [pc, #244]	; d40 <.text+0xd40>
 c48:	e3e0107a 	mvn	r1, #122	; 0x7a
 c4c:	ebffffc9 	bl	b78 <printf>
 c50:	e59f00ec 	ldr	r0, [pc, #236]	; d44 <.text+0xd44>
 c54:	e3e0107a 	mvn	r1, #122	; 0x7a
 c58:	ebffffc6 	bl	b78 <printf>
 c5c:	e59f00e4 	ldr	r0, [pc, #228]	; d48 <.text+0xd48>
 c60:	e3e0107a 	mvn	r1, #122	; 0x7a
 c64:	ebffffc3 	bl	b78 <printf>
 c68:	e59f00c8 	ldr	r0, [pc, #200]	; d38 <.text+0xd38>
 c6c:	e59f10d8 	ldr	r1, [pc, #216]	; d4c <.text+0xd4c>
 c70:	ebffffc0 	bl	b78 <printf>
 c74:	e59f00c0 	ldr	r0, [pc, #192]	; d3c <.text+0xd3c>
 c78:	e59f10cc 	ldr	r1, [pc, #204]	; d4c <.text+0xd4c>
 c7c:	ebffffbd 	bl	b78 <printf>
 c80:	e59f00c8 	ldr	r0, [pc, #200]	; d50 <.text+0xd50>
 c84:	e3a01e4d 	mov	r1, #1232	; 0x4d0
 c88:	e2811002 	add	r1, r1, #2	; 0x2
 c8c:	ebffffb9 	bl	b78 <printf>
 c90:	e59f00bc 	ldr	r0, [pc, #188]	; d54 <.text+0xd54>
 c94:	e3a01010 	mov	r1, #16	; 0x10
 c98:	ebffffb6 	bl	b78 <printf>
 c9c:	e59f00b4 	ldr	r0, [pc, #180]	; d58 <.text+0xd58>
 ca0:	e3a01e4d 	mov	r1, #1232	; 0x4d0
 ca4:	e2811002 	add	r1, r1, #2	; 0x2
 ca8:	ebffffb2 	bl	b78 <printf>
 cac:	e59f00a8 	ldr	r0, [pc, #168]	; d5c <.text+0xd5c>
 cb0:	e3a01e4d 	mov	r1, #1232	; 0x4d0
 cb4:	e2811002 	add	r1, r1, #2	; 0x2
 cb8:	ebffffae 	bl	b78 <printf>
 cbc:	e59f009c 	ldr	r0, [pc, #156]	; d60 <.text+0xd60>
 cc0:	e3a01a03 	mov	r1, #12288	; 0x3000
 cc4:	e2811039 	add	r1, r1, #57	; 0x39
 cc8:	ebffffaa 	bl	b78 <printf>
 ccc:	e59f0090 	ldr	r0, [pc, #144]	; d64 <.text+0xd64>
 cd0:	e3a01a03 	mov	r1, #12288	; 0x3000
 cd4:	e2811039 	add	r1, r1, #57	; 0x39
 cd8:	ebffffa6 	bl	b78 <printf>
 cdc:	e59f0084 	ldr	r0, [pc, #132]	; d68 <.text+0xd68>
 ce0:	e3a01a03 	mov	r1, #12288	; 0x3000
 ce4:	e2811039 	add	r1, r1, #57	; 0x39
 ce8:	ebffffa2 	bl	b78 <printf>
 cec:	e59f0078 	ldr	r0, [pc, #120]	; d6c <.text+0xd6c>
 cf0:	e3a01a1e 	mov	r1, #122880	; 0x1e000
 cf4:	e2811d09 	add	r1, r1, #576	; 0x240
 cf8:	ebffff9e 	bl	b78 <printf>
 cfc:	e59f006c 	ldr	r0, [pc, #108]	; d70 <.text+0xd70>
 d00:	e3a01a1e 	mov	r1, #122880	; 0x1e000
 d04:	e2811d09 	add	r1, r1, #576	; 0x240
 d08:	ebffff9a 	bl	b78 <printf>
 d0c:	e59f0060 	ldr	r0, [pc, #96]	; d74 <.text+0xd74>
 d10:	e3a01a1e 	mov	r1, #122880	; 0x1e000
 d14:	e2811d09 	add	r1, r1, #576	; 0x240
 d18:	ebffff96 	bl	b78 <printf>
 d1c:	eafffffe 	b	d1c <main+0x164>
 d20:	00000d78 	andeq	r0, r0, r8, ror sp
 d24:	00000d88 	andeq	r0, r0, r8, lsl #27
 d28:	00000d98 	muleq	r0, r8, sp
 d2c:	00000da8 	andeq	r0, r0, r8, lsr #27
 d30:	00000dac 	andeq	r0, r0, ip, lsr #27
 d34:	00000dbc 	streqh	r0, [r0], -ip
 d38:	00000dcc 	andeq	r0, r0, ip, asr #27
 d3c:	00000ddc 	ldreqd	r0, [r0], -ip
 d40:	00000df0 	streqd	r0, [r0], -r0
 d44:	00000e00 	andeq	r0, r0, r0, lsl #28
 d48:	00000e10 	andeq	r0, r0, r0, lsl lr
 d4c:	075bcd15 	smmlaeq	fp, r5, sp, ip
 d50:	00000e24 	andeq	r0, r0, r4, lsr #28
 d54:	00000e34 	andeq	r0, r0, r4, lsr lr
 d58:	00000e44 	andeq	r0, r0, r4, asr #28
 d5c:	00000e54 	andeq	r0, r0, r4, asr lr
 d60:	00000e68 	andeq	r0, r0, r8, ror #28
 d64:	00000e78 	andeq	r0, r0, r8, ror lr
 d68:	00000e88 	andeq	r0, r0, r8, lsl #29
 d6c:	00000e9c 	muleq	r0, ip, lr
 d70:	00000eac 	andeq	r0, r0, ip, lsr #29
 d74:	00000ebc 	streqh	r0, [r0], -ip